target datalayout = "e-m:e-p270:32:32-p271:32:32-p272:64:64-i64:64-i128:128-f80:128-n8:16:32:64-S128"
target triple = "x86_64-pc-linux-gnu"

%struct.AVFilterContext = type { ptr, ptr, ptr, ptr, ptr, i32, ptr, ptr, i32, ptr, ptr, i32, i32, ptr, ptr, ptr, ptr, i32, ptr, i32, i32 }
%struct.VAAPIVPPContext = type { ptr, ptr, ptr, i32, i32, i32, ptr, ptr, %struct._VARectangle, i32, i32, i32, [10 x i32], i32, i32, ptr, ptr }
%struct._VARectangle = type { i16, i16, i16, i16 }
%struct.HDRVAAPIContext = type { %struct.VAAPIVPPContext, ptr, ptr, ptr, ptr, i32, i32, i32, ptr, ptr, %struct._VAHdrMetaDataHDR10, %struct._VAHdrMetaDataHDR10, ptr, ptr }
%struct._VAHdrMetaDataHDR10 = type { [3 x i16], [3 x i16], i16, i16, i32, i32, i16, i16, [16 x i16] }
%struct._VAHdrMetaData = type { i32, ptr, i32, [4 x i32] }
%struct.AVVAAPIDeviceContext = type { ptr, i32 }
%struct._VAProcFilterParameterBufferHDRToneMapping = type { i32, %struct._VAHdrMetaData, [16 x i32] }
%struct._VAProcFilterCapHighDynamicRange = type { i32, i16, [16 x i16] }

@.str.50 = private unnamed_addr constant [44 x i8] c"Failed to query HDR caps context: %d (%s).\0A\00", align 1
@.str.51 = private unnamed_addr constant [34 x i8] c"VAAPI driver doesn't support HDR\0A\00", align 1
@.str.52 = private unnamed_addr constant [41 x i8] c"VAAPI driver doesn't support HDR to HDR\0A\00", align 1
@.str.53 = private unnamed_addr constant [41 x i8] c"VAAPI driver doesn't support HDR to SDR\0A\00", align 1

; Function Attrs: nounwind uwtable
define internal i32 @tonemap_vaapi_build_filter_params(ptr noundef %0) #2 {
  %2 = alloca i32, align 4
  %3 = alloca ptr, align 8
  %4 = alloca ptr, align 8
  %5 = alloca ptr, align 8
  %6 = alloca i32, align 4
  %7 = alloca %struct._VAProcFilterParameterBufferHDRToneMapping, align 8
  %8 = alloca [2 x %struct._VAProcFilterCapHighDynamicRange], align 16
  %9 = alloca i32, align 4
  %10 = alloca i32, align 4
  %11 = alloca i32, align 4
  store ptr %0, ptr %3, align 8, !tbaa !4
  call void @llvm.lifetime.start.p0(i64 8, ptr %4) #9
  %12 = load ptr, ptr %3, align 8, !tbaa !4
  %13 = getelementptr inbounds nuw %struct.AVFilterContext, ptr %12, i32 0, i32 9
  %14 = load ptr, ptr %13, align 8, !tbaa !9
  store ptr %14, ptr %4, align 8, !tbaa !22
  call void @llvm.lifetime.start.p0(i64 8, ptr %5) #9
  %15 = load ptr, ptr %3, align 8, !tbaa !4
  %16 = getelementptr inbounds nuw %struct.AVFilterContext, ptr %15, i32 0, i32 9
  %17 = load ptr, ptr %16, align 8, !tbaa !9
  store ptr %17, ptr %5, align 8, !tbaa !24
  call void @llvm.lifetime.start.p0(i64 4, ptr %6) #9
  call void @llvm.lifetime.start.p0(i64 112, ptr %7) #9
  call void @llvm.lifetime.start.p0(i64 80, ptr %8) #9
  call void @llvm.lifetime.start.p0(i64 4, ptr %9) #9
  call void @llvm.lifetime.start.p0(i64 4, ptr %10) #9
  call void @llvm.memset.p0.i64(ptr align 8 %7, i8 0, i64 112, i1 false)
  %18 = load ptr, ptr %5, align 8, !tbaa !24
  %19 = getelementptr inbounds nuw %struct.HDRVAAPIContext, ptr %18, i32 0, i32 10
  call void @llvm.memset.p0.i64(ptr align 8 %19, i8 0, i64 60, i1 false)
  store i32 2, ptr %9, align 4, !tbaa !40
  %20 = load ptr, ptr %4, align 8, !tbaa !22
  %21 = getelementptr inbounds nuw %struct.VAAPIVPPContext, ptr %20, i32 0, i32 1
  %22 = load ptr, ptr %21, align 8, !tbaa !115
  %23 = getelementptr inbounds nuw %struct.AVVAAPIDeviceContext, ptr %22, i32 0, i32 0
  %24 = load ptr, ptr %23, align 8, !tbaa !116
  %25 = load ptr, ptr %4, align 8, !tbaa !22
  %26 = getelementptr inbounds nuw %struct.VAAPIVPPContext, ptr %25, i32 0, i32 5
  %27 = load i32, ptr %26, align 8, !tbaa !71
  %28 = call i32 @vaQueryVideoProcFilterCaps(ptr noundef %24, i32 noundef %27, i32 noundef 8, ptr noundef %8, ptr noundef %9)
  store i32 %28, ptr %6, align 4, !tbaa !40
  %29 = load i32, ptr %6, align 4, !tbaa !40
  %30 = icmp ne i32 %29, 0
  br i1 %30, label %31, label %36

31:                                               ; preds = %1
  %32 = load ptr, ptr %3, align 8, !tbaa !4
  %33 = load i32, ptr %6, align 4, !tbaa !40
  %34 = load i32, ptr %6, align 4, !tbaa !40
  %35 = call ptr @vaErrorStr(i32 noundef %34)
  call void (ptr, i32, ptr, ...) @av_log(ptr noundef %32, i32 noundef 16, ptr noundef @.str.50, i32 noundef %33, ptr noundef %35)
  store i32 -5, ptr %2, align 4
  store i32 1, ptr %11, align 4
  br label %128

36:                                               ; preds = %1
  store i32 0, ptr %10, align 4, !tbaa !40
  br label %37

37:                                               ; preds = %50, %36
  %38 = load i32, ptr %10, align 4, !tbaa !40
  %39 = load i32, ptr %9, align 4, !tbaa !40
  %40 = icmp slt i32 %38, %39
  br i1 %40, label %41, label %53

41:                                               ; preds = %37
  %42 = load i32, ptr %10, align 4, !tbaa !40
  %43 = sext i32 %42 to i64
  %44 = getelementptr inbounds [2 x %struct._VAProcFilterCapHighDynamicRange], ptr %8, i64 0, i64 %43
  %45 = getelementptr inbounds nuw %struct._VAProcFilterCapHighDynamicRange, ptr %44, i32 0, i32 0
  %46 = load i32, ptr %45, align 8, !tbaa !134
  %47 = icmp ne i32 %46, 0
  br i1 %47, label %48, label %49

48:                                               ; preds = %41
  br label %53

49:                                               ; preds = %41
  br label %50

50:                                               ; preds = %49
  %51 = load i32, ptr %10, align 4, !tbaa !40
  %52 = add nsw i32 %51, 1
  store i32 %52, ptr %10, align 4, !tbaa !40
  br label %37, !llvm.loop !136

53:                                               ; preds = %48, %37
  %54 = load i32, ptr %10, align 4, !tbaa !40
  %55 = load i32, ptr %9, align 4, !tbaa !40
  %56 = icmp sge i32 %54, %55
  br i1 %56, label %57, label %59

57:                                               ; preds = %53
  %58 = load ptr, ptr %3, align 8, !tbaa !4
  call void (ptr, i32, ptr, ...) @av_log(ptr noundef %58, i32 noundef 16, ptr noundef @.str.51)
  store i32 -22, ptr %2, align 4
  store i32 1, ptr %11, align 4
  br label %128

59:                                               ; preds = %53
  %60 = load ptr, ptr %5, align 8, !tbaa !24
  %61 = getelementptr inbounds nuw %struct.HDRVAAPIContext, ptr %60, i32 0, i32 8
  %62 = load ptr, ptr %61, align 8, !tbaa !38
  %63 = icmp ne ptr %62, null
  br i1 %63, label %64, label %90

64:                                               ; preds = %59
  store i32 0, ptr %10, align 4, !tbaa !40
  br label %65

65:                                               ; preds = %80, %64
  %66 = load i32, ptr %10, align 4, !tbaa !40
  %67 = load i32, ptr %9, align 4, !tbaa !40
  %68 = icmp slt i32 %66, %67
  br i1 %68, label %69, label %83

69:                                               ; preds = %65
  %70 = load i32, ptr %10, align 4, !tbaa !40
  %71 = sext i32 %70 to i64
  %72 = getelementptr inbounds [2 x %struct._VAProcFilterCapHighDynamicRange], ptr %8, i64 0, i64 %71
  %73 = getelementptr inbounds nuw %struct._VAProcFilterCapHighDynamicRange, ptr %72, i32 0, i32 1
  %74 = load i16, ptr %73, align 4, !tbaa !137
  %75 = zext i16 %74 to i32
  %76 = and i32 1, %75
  %77 = icmp ne i32 %76, 0
  br i1 %77, label %78, label %79

78:                                               ; preds = %69
  br label %83

79:                                               ; preds = %69
  br label %80

80:                                               ; preds = %79
  %81 = load i32, ptr %10, align 4, !tbaa !40
  %82 = add nsw i32 %81, 1
  store i32 %82, ptr %10, align 4, !tbaa !40
  br label %65, !llvm.loop !138

83:                                               ; preds = %78, %65
  %84 = load i32, ptr %10, align 4, !tbaa !40
  %85 = load i32, ptr %9, align 4, !tbaa !40
  %86 = icmp sge i32 %84, %85
  br i1 %86, label %87, label %89

87:                                               ; preds = %83
  %88 = load ptr, ptr %3, align 8, !tbaa !4
  call void (ptr, i32, ptr, ...) @av_log(ptr noundef %88, i32 noundef 16, ptr noundef @.str.52)
  store i32 -22, ptr %2, align 4
  store i32 1, ptr %11, align 4
  br label %128

89:                                               ; preds = %83
  br label %116

90:                                               ; preds = %59
  store i32 0, ptr %10, align 4, !tbaa !40
  br label %91

91:                                               ; preds = %106, %90
  %92 = load i32, ptr %10, align 4, !tbaa !40
  %93 = load i32, ptr %9, align 4, !tbaa !40
  %94 = icmp slt i32 %92, %93
  br i1 %94, label %95, label %109

95:                                               ; preds = %91
  %96 = load i32, ptr %10, align 4, !tbaa !40
  %97 = sext i32 %96 to i64
  %98 = getelementptr inbounds [2 x %struct._VAProcFilterCapHighDynamicRange], ptr %8, i64 0, i64 %97
  %99 = getelementptr inbounds nuw %struct._VAProcFilterCapHighDynamicRange, ptr %98, i32 0, i32 1
  %100 = load i16, ptr %99, align 4, !tbaa !137
  %101 = zext i16 %100 to i32
  %102 = and i32 2, %101
  %103 = icmp ne i32 %102, 0
  br i1 %103, label %104, label %105

104:                                              ; preds = %95
  br label %109

105:                                              ; preds = %95
  br label %106

106:                                              ; preds = %105
  %107 = load i32, ptr %10, align 4, !tbaa !40
  %108 = add nsw i32 %107, 1
  store i32 %108, ptr %10, align 4, !tbaa !40
  br label %91, !llvm.loop !139

109:                                              ; preds = %104, %91
  %110 = load i32, ptr %10, align 4, !tbaa !40
  %111 = load i32, ptr %9, align 4, !tbaa !40
  %112 = icmp sge i32 %110, %111
  br i1 %112, label %113, label %115

113:                                              ; preds = %109
  %114 = load ptr, ptr %3, align 8, !tbaa !4
  call void (ptr, i32, ptr, ...) @av_log(ptr noundef %114, i32 noundef 16, ptr noundef @.str.53)
  store i32 -22, ptr %2, align 4
  store i32 1, ptr %11, align 4
  br label %128

115:                                              ; preds = %109
  br label %116

116:                                              ; preds = %115, %89
  %117 = getelementptr inbounds nuw %struct._VAProcFilterParameterBufferHDRToneMapping, ptr %7, i32 0, i32 0
  store i32 8, ptr %117, align 8, !tbaa !140
  %118 = getelementptr inbounds nuw %struct._VAProcFilterParameterBufferHDRToneMapping, ptr %7, i32 0, i32 1
  %119 = getelementptr inbounds nuw %struct._VAHdrMetaData, ptr %118, i32 0, i32 0
  store i32 1, ptr %119, align 8, !tbaa !141
  %120 = load ptr, ptr %5, align 8, !tbaa !24
  %121 = getelementptr inbounds nuw %struct.HDRVAAPIContext, ptr %120, i32 0, i32 10
  %122 = getelementptr inbounds nuw %struct._VAProcFilterParameterBufferHDRToneMapping, ptr %7, i32 0, i32 1
  %123 = getelementptr inbounds nuw %struct._VAHdrMetaData, ptr %122, i32 0, i32 1
  store ptr %121, ptr %123, align 8, !tbaa !120
  %124 = getelementptr inbounds nuw %struct._VAProcFilterParameterBufferHDRToneMapping, ptr %7, i32 0, i32 1
  %125 = getelementptr inbounds nuw %struct._VAHdrMetaData, ptr %124, i32 0, i32 2
  store i32 60, ptr %125, align 8, !tbaa !142
  %126 = load ptr, ptr %3, align 8, !tbaa !4
  %127 = call i32 @ff_vaapi_vpp_make_param_buffers(ptr noundef %126, i32 noundef 42, ptr noundef %7, i64 noundef 112, i32 noundef 1)
  store i32 %127, ptr %2, align 4
  store i32 1, ptr %11, align 4
  br label %128

128:                                              ; preds = %116, %113, %87, %57, %31
  call void @llvm.lifetime.end.p0(i64 4, ptr %10) #9
  call void @llvm.lifetime.end.p0(i64 4, ptr %9) #9
  call void @llvm.lifetime.end.p0(i64 80, ptr %8) #9
  call void @llvm.lifetime.end.p0(i64 112, ptr %7) #9
  call void @llvm.lifetime.end.p0(i64 4, ptr %6) #9
  call void @llvm.lifetime.end.p0(i64 8, ptr %5) #9
  call void @llvm.lifetime.end.p0(i64 8, ptr %4) #9
  %129 = load i32, ptr %2, align 4
  ret i32 %129
}