; Function Attrs: nounwind uwtable
define internal i32 @tonemap_vaapi_build_filter_params(ptr noundef %0) #2 {
  %2 = alloca %struct._VAProcFilterParameterBufferHDRToneMapping, align 8
  %3 = alloca [2 x %struct._VAProcFilterCapHighDynamicRange], align 16
  %4 = alloca i32, align 4
  %5 = getelementptr inbounds nuw i8, ptr %0, i64 72
  %6 = load ptr, ptr %5, align 8, !tbaa !4
  call void @llvm.lifetime.start.p0(i64 112, ptr nonnull %2) #9
  call void @llvm.lifetime.start.p0(i64 80, ptr nonnull %3) #9
  call void @llvm.lifetime.start.p0(i64 4, ptr nonnull %4) #9
  call void @llvm.memset.p0.i64(ptr noundef nonnull align 8 dereferenceable(112) %2, i8 0, i64 112, i1 false)
  %7 = getelementptr inbounds nuw i8, ptr %6, i64 208
  tail call void @llvm.memset.p0.i64(ptr noundef nonnull align 8 dereferenceable(60) %7, i8 0, i64 60, i1 false)
  store i32 2, ptr %4, align 4, !tbaa !75
  %8 = getelementptr inbounds nuw i8, ptr %6, i64 8
  %9 = load ptr, ptr %8, align 8, !tbaa !87
  %10 = load ptr, ptr %9, align 8, !tbaa !88
  %11 = getelementptr inbounds nuw i8, ptr %6, i64 32
  %12 = load i32, ptr %11, align 8, !tbaa !65
  %13 = call i32 @vaQueryVideoProcFilterCaps(ptr noundef %10, i32 noundef %12, i32 noundef 8, ptr noundef nonnull %3, ptr noundef nonnull %4) #9
  %.not = icmp eq i32 %13, 0
  br i1 %.not, label %.preheader40, label %16

.preheader40:                                     ; preds = %1
  %14 = load i32, ptr %4, align 4, !tbaa !75
  %15 = icmp sgt i32 %14, 0
  br i1 %15, label %.lr.ph.preheader, label %._crit_edge

.lr.ph.preheader:                                 ; preds = %.preheader40
  %wide.trip.count = zext nneg i32 %14 to i64
  br label %.lr.ph

16:                                               ; preds = %1
  %17 = call ptr @vaErrorStr(i32 noundef %13) #9
  call void (ptr, i32, ptr, ...) @av_log(ptr noundef nonnull %0, i32 noundef 16, ptr noundef nonnull @.str.50, i32 noundef %13, ptr noundef %17) #9
  br label %36

18:                                               ; preds = %.lr.ph
  %indvars.iv.next = add nuw nsw i64 %indvars.iv, 1
  %exitcond.not = icmp eq i64 %indvars.iv.next, %wide.trip.count
  br i1 %exitcond.not, label %._crit_edge, label %.lr.ph, !llvm.loop !124

.lr.ph:                                           ; preds = %.lr.ph.preheader, %18
  %indvars.iv = phi i64 [ 0, %.lr.ph.preheader ], [ %indvars.iv.next, %18 ]
  %19 = getelementptr inbounds nuw [2 x %struct._VAProcFilterCapHighDynamicRange], ptr %3, i64 0, i64 %indvars.iv
  %20 = load i32, ptr %19, align 8, !tbaa !125
  %.not29 = icmp eq i32 %20, 0
  br i1 %.not29, label %18, label %21

._crit_edge:                                      ; preds = %18, %.preheader40
  call void (ptr, i32, ptr, ...) @av_log(ptr noundef %0, i32 noundef 16, ptr noundef nonnull @.str.51) #9
  br label %36

21:                                               ; preds = %.lr.ph
  %22 = getelementptr inbounds nuw i8, ptr %6, i64 192
  %23 = load ptr, ptr %22, align 8, !tbaa !32
  %.not31 = icmp eq ptr %23, null
  br i1 %.not31, label %.lr.ph47, label %.lr.ph44

24:                                               ; preds = %.lr.ph44
  %indvars.iv.next52 = add nuw nsw i64 %indvars.iv51, 1
  %exitcond55.not = icmp eq i64 %indvars.iv.next52, %wide.trip.count
  br i1 %exitcond55.not, label %._crit_edge45, label %.lr.ph44, !llvm.loop !127

.lr.ph44:                                         ; preds = %21, %24
  %indvars.iv51 = phi i64 [ %indvars.iv.next52, %24 ], [ 0, %21 ]
  %25 = getelementptr inbounds nuw [2 x %struct._VAProcFilterCapHighDynamicRange], ptr %3, i64 0, i64 %indvars.iv51, i32 1
  %26 = load i16, ptr %25, align 4, !tbaa !128
  %27 = and i16 %26, 1
  %.not34 = icmp eq i16 %27, 0
  br i1 %.not34, label %24, label %.thread36

._crit_edge45:                                    ; preds = %24
  call void (ptr, i32, ptr, ...) @av_log(ptr noundef %0, i32 noundef 16, ptr noundef nonnull @.str.52) #9
  br label %36

28:                                               ; preds = %.lr.ph47
  %indvars.iv.next57 = add nuw nsw i64 %indvars.iv56, 1
  %exitcond60.not = icmp eq i64 %indvars.iv.next57, %wide.trip.count
  br i1 %exitcond60.not, label %._crit_edge48, label %.lr.ph47, !llvm.loop !129

.lr.ph47:                                         ; preds = %21, %28
  %indvars.iv56 = phi i64 [ %indvars.iv.next57, %28 ], [ 0, %21 ]
  %29 = getelementptr inbounds nuw [2 x %struct._VAProcFilterCapHighDynamicRange], ptr %3, i64 0, i64 %indvars.iv56, i32 1
  %30 = load i16, ptr %29, align 4, !tbaa !128
  %31 = and i16 %30, 2
  %.not32 = icmp eq i16 %31, 0
  br i1 %.not32, label %28, label %.thread36

._crit_edge48:                                    ; preds = %28
  call void (ptr, i32, ptr, ...) @av_log(ptr noundef %0, i32 noundef 16, ptr noundef nonnull @.str.53) #9
  br label %36

.thread36:                                        ; preds = %.lr.ph44, %.lr.ph47
  store i32 8, ptr %2, align 8, !tbaa !130
  %32 = getelementptr inbounds nuw i8, ptr %2, i64 8
  store i32 1, ptr %32, align 8, !tbaa !131
  %33 = getelementptr inbounds nuw i8, ptr %2, i64 16
  store ptr %7, ptr %33, align 8, !tbaa !92
  %34 = getelementptr inbounds nuw i8, ptr %2, i64 24
  store i32 60, ptr %34, align 8, !tbaa !132
  %35 = call i32 @ff_vaapi_vpp_make_param_buffers(ptr noundef %0, i32 noundef 42, ptr noundef nonnull %2, i64 noundef 112, i32 noundef 1) #9
  br label %36

36:                                               ; preds = %.thread36, %._crit_edge48, %._crit_edge45, %._crit_edge, %16
  %.027 = phi i32 [ -5, %16 ], [ -22, %._crit_edge ], [ -22, %._crit_edge45 ], [ %35, %.thread36 ], [ -22, %._crit_edge48 ]
  call void @llvm.lifetime.end.p0(i64 4, ptr nonnull %4) #9
  call void @llvm.lifetime.end.p0(i64 80, ptr nonnull %3) #9
  call void @llvm.lifetime.end.p0(i64 112, ptr nonnull %2) #9
  ret i32 %.027
}